; Function Attrs: nofree norecurse nosync nounwind memory(readwrite, inaccessiblemem: none) uwtable
define void @Supp_SetConvert(ptr noundef readonly captures(none) %0, ptr noundef readonly captures(none) %1) local_unnamed_addr #0 {
  %3 = getelementptr i8, ptr %0, i64 4
  %.val11 = load i32, ptr %3, align 4, !tbaa !30
  %4 = icmp sgt i32 %.val11, 0
  br i1 %4, label %.lr.ph, label %.critedge

.lr.ph:                                           ; preds = %2
  %5 = getelementptr i8, ptr %0, i64 8
  %.val9 = load ptr, ptr %5, align 8, !tbaa !34
  %6 = getelementptr i8, ptr %1, i64 8
  %.val8 = load ptr, ptr %6, align 8, !tbaa !34
  br label %7

7:                                                ; preds = %.lr.ph, %7
  %indvars.iv = phi i64 [ 0, %.lr.ph ], [ %indvars.iv.next, %7 ]
  %8 = getelementptr inbounds nuw i32, ptr %.val9, i64 %indvars.iv
  %9 = load i32, ptr %8, align 4, !tbaa !35
  %10 = sext i32 %9 to i64
  %11 = getelementptr inbounds i32, ptr %.val8, i64 %10
  %12 = load i32, ptr %11, align 4, !tbaa !35
  store i32 %12, ptr %8, align 4, !tbaa !35
  %indvars.iv.next = add nuw nsw i64 %indvars.iv, 1
  %.val = load i32, ptr %3, align 4, !tbaa !30
  %13 = sext i32 %.val to i64
  %14 = icmp slt i64 %indvars.iv.next, %13
  br i1 %14, label %7, label %.critedge, !llvm.loop !98

.critedge:                                        ; preds = %7, %2
  ret void
}